ccopy_reg
_reconstructor
p0
(cgensim.corpora.dictionary
Dictionary
p1
c__builtin__
object
p2
Ntp3
Rp4
(dp5
S'num_docs'
p6
I0
sS'token2id'
p7
(dp8
sS'dfs'
p9
(dp10
sS'num_nnz'
p11
I0
sS'id2token'
p12
(dp13
sS'num_pos'
p14
I0
sb.